; Function Attrs: mustprogress uwtable
define dso_local void @_ZN4absl13time_internal4cctz10TimeZoneIf3UTCEv(ptr dead_on_unwind noalias writable writeonly sret(%"class.std::unique_ptr") align 8 captures(none) initializes((0, 8)) %0) local_unnamed_addr #0 align 2 personality ptr @__gxx_personality_v0 {
_ZNSt10unique_ptrIN4absl13time_internal4cctz12TimeZoneInfoESt14default_deleteIS3_EED2Ev.exit:
  %1 = alloca %"class.std::unique_ptr.2", align 8
  call void @llvm.lifetime.start.p0(i64 8, ptr nonnull %1) #11
  call void @_ZN4absl13time_internal4cctz12TimeZoneInfo3UTCEv(ptr dead_on_unwind nonnull writable sret(%"class.std::unique_ptr.2") align 8 %1)
  %2 = load ptr, ptr %1, align 8, !tbaa !4
  store ptr %2, ptr %0, align 8, !tbaa !9
  call void @llvm.lifetime.end.p0(i64 8, ptr nonnull %1) #11
  ret void
}